target datalayout = "e-m:e-p270:32:32-p271:32:32-p272:64:64-i64:64-i128:128-f80:128-n8:16:32:64-S128"
target triple = "x86_64-pc-linux-gnu"

%struct.anon = type { i64, i64 }
%class.ZSafePageRecycle = type { ptr, %class.ZActivatedArray }
%class.ZActivatedArray = type { ptr, i64, %class.GrowableArrayCHeap }
%class.GrowableArrayCHeap = type { %class.GrowableArrayWithAllocator }
%class.GrowableArrayWithAllocator = type { %class.GrowableArrayView }
%class.GrowableArrayView = type { %class.GrowableArrayBase, ptr }
%class.GrowableArrayBase = type { i32, i32 }
%class.ZLocker = type { ptr }
%class.ZListNode = type { ptr, ptr }
%class.ZPageAllocator = type <{ %class.ZLock, %class.ZPageCache, %class.ZVirtualMemoryManager, %class.ZPhysicalMemoryManager, i64, i64, i64, i64, i64, i64, i64, [2 x i64], [2 x %struct.anon], %class.ZList.7, ptr, ptr, %class.ZSafeDelete, %class.ZSafePageRecycle, i8, [7 x i8] }>
%class.ZLock = type { %class.PlatformMutex }
%class.PlatformMutex = type { %union.pthread_mutex_t }
%union.pthread_mutex_t = type { %struct.__pthread_mutex_s }
%struct.__pthread_mutex_s = type { i32, i32, i32, i32, i32, i16, i16, %struct.__pthread_internal_list }
%struct.__pthread_internal_list = type { ptr, ptr }
%class.ZPageCache = type { %class.ZValue, %class.ZList, %class.ZList, i64 }
%class.ZValue = type { i64 }
%class.ZList = type { %class.ZListNode, i64 }
%class.ZVirtualMemoryManager = type <{ %class.ZMemoryManager, i64, i8, [7 x i8] }>
%class.ZMemoryManager = type { %class.ZLock, %class.ZList.5, %"struct.ZMemoryManager::Callbacks" }
%class.ZList.5 = type { %class.ZListNode.6, i64 }
%class.ZListNode.6 = type { ptr, ptr }
%"struct.ZMemoryManager::Callbacks" = type { ptr, ptr, ptr, ptr, ptr, ptr }
%class.ZPhysicalMemoryManager = type { %class.ZPhysicalMemoryBacking, %class.ZMemoryManager }
%class.ZPhysicalMemoryBacking = type <{ i32, [4 x i8], i64, i64, i64, i64, i8, [7 x i8] }>
%class.ZList.7 = type { %class.ZListNode.8, i64 }
%class.ZListNode.8 = type { ptr, ptr }
%class.ZSafeDelete = type { %class.ZActivatedArray }

; Function Attrs: mustprogress nounwind uwtable
define linkonce_odr hidden noundef ptr @_ZN13PlatformMutex5mutexEv(ptr noundef nonnull align 8 dereferenceable(40) %0) #1 comdat align 2 {
  %2 = alloca ptr, align 8
  store ptr %0, ptr %2, align 8
  %3 = load ptr, ptr %2, align 8
  %4 = getelementptr inbounds %class.PlatformMutex, ptr %3, i32 0, i32 0
  ret ptr %4
}

; Function Attrs: mustprogress nounwind uwtable
define linkonce_odr hidden void @_ZN13PlatformMutex6unlockEv(ptr noundef nonnull align 8 dereferenceable(40) %0) #1 comdat align 2 {
  %2 = alloca ptr, align 8
  %3 = alloca i32, align 4
  store ptr %0, ptr %2, align 8
  %4 = load ptr, ptr %2, align 8
  %5 = call noundef ptr @_ZN13PlatformMutex5mutexEv(ptr noundef nonnull align 8 dereferenceable(40) %4)
  %6 = call i32 @pthread_mutex_unlock(ptr noundef %5) #8
  store i32 %6, ptr %3, align 4
  ret void
}

; Function Attrs: mustprogress nounwind uwtable
define linkonce_odr hidden void @_ZN13PlatformMutex4lockEv(ptr noundef nonnull align 8 dereferenceable(40) %0) #1 comdat align 2 {
  %2 = alloca ptr, align 8
  %3 = alloca i32, align 4
  store ptr %0, ptr %2, align 8
  %4 = load ptr, ptr %2, align 8
  %5 = call noundef ptr @_ZN13PlatformMutex5mutexEv(ptr noundef nonnull align 8 dereferenceable(40) %4)
  %6 = call i32 @pthread_mutex_lock(ptr noundef %5) #8
  store i32 %6, ptr %3, align 4
  ret void
}

; Function Attrs: mustprogress nounwind uwtable
define linkonce_odr hidden void @_ZN5ZLock6unlockEv(ptr noundef nonnull align 8 dereferenceable(40) %0) #1 comdat align 2 {
  %2 = alloca ptr, align 8
  store ptr %0, ptr %2, align 8
  %3 = load ptr, ptr %2, align 8
  %4 = getelementptr inbounds %class.ZLock, ptr %3, i32 0, i32 0
  call void @_ZN13PlatformMutex6unlockEv(ptr noundef nonnull align 8 dereferenceable(40) %4)
  ret void
}

; Function Attrs: mustprogress nounwind uwtable
define linkonce_odr hidden void @_ZN5ZLock4lockEv(ptr noundef nonnull align 8 dereferenceable(40) %0) #1 comdat align 2 {
  %2 = alloca ptr, align 8
  store ptr %0, ptr %2, align 8
  %3 = load ptr, ptr %2, align 8
  %4 = getelementptr inbounds %class.ZLock, ptr %3, i32 0, i32 0
  call void @_ZN13PlatformMutex4lockEv(ptr noundef nonnull align 8 dereferenceable(40) %4)
  ret void
}

; Function Attrs: mustprogress nounwind uwtable
define linkonce_odr hidden void @_ZN7ZLockerI5ZLockED2Ev(ptr noundef nonnull align 8 dereferenceable(8) %0) unnamed_addr #1 comdat align 2 {
  %2 = alloca ptr, align 8
  store ptr %0, ptr %2, align 8
  %3 = load ptr, ptr %2, align 8
  %4 = getelementptr inbounds %class.ZLocker, ptr %3, i32 0, i32 0
  %5 = load ptr, ptr %4, align 8
  %6 = icmp ne ptr %5, null
  br i1 %6, label %7, label %10

7:                                                ; preds = %1
  %8 = getelementptr inbounds %class.ZLocker, ptr %3, i32 0, i32 0
  %9 = load ptr, ptr %8, align 8
  call void @_ZN5ZLock6unlockEv(ptr noundef nonnull align 8 dereferenceable(40) %9)
  br label %10

10:                                               ; preds = %7, %1
  ret void
}

; Function Attrs: mustprogress nounwind uwtable
define linkonce_odr hidden void @_ZN7ZLockerI5ZLockEC2EPS0_(ptr noundef nonnull align 8 dereferenceable(8) %0, ptr noundef %1) unnamed_addr #1 comdat align 2 {
  %3 = alloca ptr, align 8
  %4 = alloca ptr, align 8
  store ptr %0, ptr %3, align 8
  store ptr %1, ptr %4, align 8
  %5 = load ptr, ptr %3, align 8
  %6 = getelementptr inbounds %class.ZLocker, ptr %5, i32 0, i32 0
  %7 = load ptr, ptr %4, align 8
  store ptr %7, ptr %6, align 8
  %8 = getelementptr inbounds %class.ZLocker, ptr %5, i32 0, i32 0
  %9 = load ptr, ptr %8, align 8
  %10 = icmp ne ptr %9, null
  br i1 %10, label %11, label %14

11:                                               ; preds = %2
  %12 = getelementptr inbounds %class.ZLocker, ptr %5, i32 0, i32 0
  %13 = load ptr, ptr %12, align 8
  call void @_ZN5ZLock4lockEv(ptr noundef nonnull align 8 dereferenceable(40) %13)
  br label %14

14:                                               ; preds = %11, %2
  ret void
}

; Function Attrs: mustprogress nounwind uwtable
define linkonce_odr hidden void @_ZN15ZActivatedArrayI5ZPageE8activateEv(ptr noundef nonnull align 8 dereferenceable(32) %0) #1 comdat align 2 {
  %2 = alloca ptr, align 8
  %3 = alloca %class.ZLocker, align 8
  store ptr %0, ptr %2, align 8
  %4 = load ptr, ptr %2, align 8
  %5 = getelementptr inbounds %class.ZActivatedArray, ptr %4, i32 0, i32 0
  %6 = load ptr, ptr %5, align 8
  call void @_ZN7ZLockerI5ZLockEC2EPS0_(ptr noundef nonnull align 8 dereferenceable(8) %3, ptr noundef %6)
  %7 = getelementptr inbounds %class.ZActivatedArray, ptr %4, i32 0, i32 1
  %8 = load i64, ptr %7, align 8
  %9 = add i64 %8, 1
  store i64 %9, ptr %7, align 8
  call void @_ZN7ZLockerI5ZLockED2Ev(ptr noundef nonnull align 8 dereferenceable(8) %3) #8
  ret void
}

; Function Attrs: mustprogress nounwind uwtable
define linkonce_odr hidden void @_ZN11ZSafeDeleteI5ZPageE22enable_deferred_deleteEv(ptr noundef nonnull align 8 dereferenceable(32) %0) #1 comdat align 2 {
  %2 = alloca ptr, align 8
  store ptr %0, ptr %2, align 8
  %3 = load ptr, ptr %2, align 8
  %4 = getelementptr inbounds %class.ZSafeDelete, ptr %3, i32 0, i32 0
  call void @_ZN15ZActivatedArrayI5ZPageE8activateEv(ptr noundef nonnull align 8 dereferenceable(32) %4)
  ret void
}

; Function Attrs: mustprogress nounwind uwtable
define hidden void @_ZNK14ZPageAllocator19enable_safe_destroyEv(ptr noundef nonnull align 8 dereferenceable(609) %0) #1 align 2 {
  %2 = alloca ptr, align 8
  store ptr %0, ptr %2, align 8
  %3 = load ptr, ptr %2, align 8
  %4 = getelementptr inbounds %class.ZPageAllocator, ptr %3, i32 0, i32 16
  call void @_ZN11ZSafeDeleteI5ZPageE22enable_deferred_deleteEv(ptr noundef nonnull align 8 dereferenceable(32) %4)
  ret void
}